; Function Attrs: mustprogress noreturn uwtable
define void @_ZN2cv3ogl9Texture2DC2ENS_5Size_IiEENS1_6FormatEjb(ptr nocapture noundef nonnull align 8 dereferenceable(28) %0, i64 %1, i32 %2, i32 %3, i1 zeroext %4) unnamed_addr #0 align 2 personality ptr @__gxx_personality_v0 {
  tail call void @llvm.memset.p0.i64(ptr noundef nonnull align 8 dereferenceable(28) %0, i8 0, i64 28, i1 false)
  invoke fastcc void @_ZN12_GLOBAL__N_112throw_no_oglEv() #9
          to label %6 unwind label %7

6:                                                ; preds = %5
  unreachable

7:                                                ; preds = %5
  %8 = landingpad { ptr, i32 }
          cleanup
  %9 = getelementptr inbounds i8, ptr %0, i64 8
  %10 = load ptr, ptr %9, align 8
  %.not.i.i.i.i = icmp eq ptr %10, null
  br i1 %.not.i.i.i.i, label %_ZN2cv3PtrINS_3ogl9Texture2D4ImplEED2Ev.exit, label %11

11:                                               ; preds = %7
  %12 = getelementptr inbounds i8, ptr %10, i64 8
  %13 = load atomic i64, ptr %12 acquire, align 8
  %14 = icmp eq i64 %13, 4294967297
  %15 = trunc i64 %13 to i32
  br i1 %14, label %16, label %21

16:                                               ; preds = %11
  store i32 0, ptr %12, align 8
  %17 = getelementptr inbounds i8, ptr %10, i64 12
  store i32 0, ptr %17, align 4
  %18 = load ptr, ptr %10, align 8
  %19 = getelementptr inbounds i8, ptr %18, i64 16
  %20 = load ptr, ptr %19, align 8
  tail call void %20(ptr noundef nonnull align 8 dereferenceable(16) %10) #10
  br label %_ZNSt16_Sp_counted_baseILN9__gnu_cxx12_Lock_policyE2EE24_M_release_last_use_coldEv.exit.sink.split.i.i.i.i.i

21:                                               ; preds = %11
  %22 = load i8, ptr @__libc_single_threaded, align 1
  %.not.i.i.i.i.i = icmp eq i8 %22, 0
  br i1 %.not.i.i.i.i.i, label %25, label %23

23:                                               ; preds = %21
  %24 = add nsw i32 %15, -1
  store i32 %24, ptr %12, align 4
  br label %27

25:                                               ; preds = %21
  %26 = atomicrmw volatile add ptr %12, i32 -1 acq_rel, align 4
  br label %27

27:                                               ; preds = %25, %23
  %.0.i.i.i.i.i = phi i32 [ %15, %23 ], [ %26, %25 ]
  %28 = icmp eq i32 %.0.i.i.i.i.i, 1
  br i1 %28, label %29, label %_ZN2cv3PtrINS_3ogl9Texture2D4ImplEED2Ev.exit

29:                                               ; preds = %27
  %30 = load ptr, ptr %10, align 8
  %31 = getelementptr inbounds i8, ptr %30, i64 16
  %32 = load ptr, ptr %31, align 8
  tail call void %32(ptr noundef nonnull align 8 dereferenceable(16) %10) #10
  %33 = getelementptr inbounds i8, ptr %10, i64 12
  %34 = load i8, ptr @__libc_single_threaded, align 1
  %.not.i.i.i.i.i.i.i = icmp eq i8 %34, 0
  br i1 %.not.i.i.i.i.i.i.i, label %38, label %35

35:                                               ; preds = %29
  %36 = load i32, ptr %33, align 4
  %37 = add nsw i32 %36, -1
  store i32 %37, ptr %33, align 4
  br label %40

38:                                               ; preds = %29
  %39 = atomicrmw volatile add ptr %33, i32 -1 acq_rel, align 4
  br label %40

40:                                               ; preds = %38, %35
  %.0.i.i.i.i.i.i.i = phi i32 [ %36, %35 ], [ %39, %38 ]
  %41 = icmp eq i32 %.0.i.i.i.i.i.i.i, 1
  br i1 %41, label %_ZNSt16_Sp_counted_baseILN9__gnu_cxx12_Lock_policyE2EE24_M_release_last_use_coldEv.exit.sink.split.i.i.i.i.i, label %_ZN2cv3PtrINS_3ogl9Texture2D4ImplEED2Ev.exit

_ZNSt16_Sp_counted_baseILN9__gnu_cxx12_Lock_policyE2EE24_M_release_last_use_coldEv.exit.sink.split.i.i.i.i.i: ; preds = %40, %16
  %42 = load ptr, ptr %10, align 8
  %43 = getelementptr inbounds i8, ptr %42, i64 24
  %44 = load ptr, ptr %43, align 8
  tail call void %44(ptr noundef nonnull align 8 dereferenceable(16) %10) #10
  br label %_ZN2cv3PtrINS_3ogl9Texture2D4ImplEED2Ev.exit

_ZN2cv3PtrINS_3ogl9Texture2D4ImplEED2Ev.exit:     ; preds = %7, %27, %40, %_ZNSt16_Sp_counted_baseILN9__gnu_cxx12_Lock_policyE2EE24_M_release_last_use_coldEv.exit.sink.split.i.i.i.i.i
  resume { ptr, i32 } %8
}